; Function Attrs: mustprogress nofree norecurse nosync nounwind willreturn memory(write, argmem: read, inaccessiblemem: none) uwtable
define hidden void @_glfwSetCursorPosNull(ptr noundef readonly captures(none) %0, double noundef %1, double noundef %2) local_unnamed_addr #10 {
  %4 = getelementptr inbounds nuw i8, ptr %0, i64 3368
  %5 = load i32, ptr %4, align 8, !tbaa !58
  %6 = fptosi double %1 to i32
  %7 = add nsw i32 %5, %6
  store i32 %7, ptr getelementptr inbounds nuw (i8, ptr @_glfw, i64 142744), align 8, !tbaa !172
  %8 = getelementptr inbounds nuw i8, ptr %0, i64 3372
  %9 = load i32, ptr %8, align 4, !tbaa !59
  %10 = fptosi double %2 to i32
  %11 = add nsw i32 %9, %10
  store i32 %11, ptr getelementptr inbounds nuw (i8, ptr @_glfw, i64 142748), align 4, !tbaa !173
  ret void
}